; Function Attrs: mustprogress uwtable
define internal noundef zeroext i1 @"_ZNSt17_Function_handlerIFvlEZNK4pbrt12CPUAggregate16IntersectClosestEiPKNS1_8RayQueueEPNS1_15EscapedRayQueueEPNS1_9WorkQueueINS1_20HitAreaLightWorkItemEEEPNS1_14MultiWorkQueueINS1_8TypePackIJNS1_20MaterialEvalWorkItemINS1_21CoatedDiffuseMaterialEEENSE_INS1_23CoatedConductorMaterialEEENSE_INS1_17ConductorMaterialEEENSE_INS1_18DielectricMaterialEEENSE_INS1_15DiffuseMaterialEEENSE_INS1_27DiffuseTransmissionMaterialEEENSE_INS1_12HairMaterialEEENSE_INS1_16MeasuredMaterialEEENSE_INS1_18SubsurfaceMaterialEEENSE_INS1_22ThinDielectricMaterialEEENSE_INS1_11MixMaterialEEEEEEEES13_PNS1_17MediumSampleQueueEPS3_E3$_0E10_M_managerERSt9_Any_dataRKS19_St18_Manager_operation"(ptr nocapture noundef nonnull align 8 dereferenceable(16) %__dest, ptr nocapture noundef nonnull readonly align 8 dereferenceable(16) %__source, i32 noundef %__op) #1 align 2 {
entry:
  switch i32 %__op, label %sw.epilog [
    i32 0, label %sw.bb
    i32 1, label %sw.bb1
    i32 3, label %sw.bb6.i
    i32 2, label %sw.bb4.i
  ]

sw.bb:                                            ; preds = %entry
  store ptr @"_ZTIZNK4pbrt12CPUAggregate16IntersectClosestEiPKNS_8RayQueueEPNS_15EscapedRayQueueEPNS_9WorkQueueINS_20HitAreaLightWorkItemEEEPNS_14MultiWorkQueueINS_8TypePackIJNS_20MaterialEvalWorkItemINS_21CoatedDiffuseMaterialEEENSC_INS_23CoatedConductorMaterialEEENSC_INS_17ConductorMaterialEEENSC_INS_18DielectricMaterialEEENSC_INS_15DiffuseMaterialEEENSC_INS_27DiffuseTransmissionMaterialEEENSC_INS_12HairMaterialEEENSC_INS_16MeasuredMaterialEEENSC_INS_18SubsurfaceMaterialEEENSC_INS_22ThinDielectricMaterialEEENSC_INS_11MixMaterialEEEEEEEES11_PNS_17MediumSampleQueueEPS1_E3$_0", ptr %__dest, align 8
  br label %sw.epilog

sw.bb1:                                           ; preds = %entry
  %__source.val = load ptr, ptr %__source, align 8
  store ptr %__source.val, ptr %__dest, align 8
  br label %sw.epilog

sw.bb4.i:                                         ; preds = %entry
  %__source.val5 = load ptr, ptr %__source, align 8
  %call.i.i.i = tail call noalias noundef nonnull dereferenceable(64) ptr @_Znwm(i64 noundef 64) #21
  tail call void @llvm.memcpy.p0.p0.i64(ptr noundef nonnull align 16 dereferenceable(64) %call.i.i.i, ptr noundef nonnull align 8 dereferenceable(64) %__source.val5, i64 64, i1 false)
  store ptr %call.i.i.i, ptr %__dest, align 8
  br label %sw.epilog

sw.bb6.i:                                         ; preds = %entry
  %__dest.val.i = load ptr, ptr %__dest, align 8
  %isnull.i.i = icmp eq ptr %__dest.val.i, null
  br i1 %isnull.i.i, label %sw.epilog, label %delete.notnull.i.i

delete.notnull.i.i:                               ; preds = %sw.bb6.i
  tail call void @_ZdlPv(ptr noundef nonnull %__dest.val.i) #23
  br label %sw.epilog

sw.epilog:                                        ; preds = %entry, %delete.notnull.i.i, %sw.bb6.i, %sw.bb4.i, %sw.bb1, %sw.bb
  ret i1 false
}